target datalayout = "e-m:e-p270:32:32-p271:32:32-p272:64:64-i64:64-i128:128-f80:128-n8:16:32:64-S128"
target triple = "x86_64-pc-linux-gnu"

@H5P_CLS_FILE_CREATE_ID_g = external global i64, align 8
@H5_libinit_g = external global i8, align 1
@H5_libterm_g = external global i8, align 1
@.str.1 = private unnamed_addr constant [101 x i8] c"generated/home/dtcxzyw/WorkSpace/Projects/compilers/llvm-opt-benchmark/bench/hdf5/hdf5/src/H5Pfcpl.c\00", align 1
@__func__.H5Pset_userblock = private unnamed_addr constant [17 x i8] c"H5Pset_userblock\00", align 1
@H5E_FUNC_g = external global i64, align 8
@H5E_CANTINIT_g = external global i64, align 8
@.str.2 = private unnamed_addr constant [30 x i8] c"library initialization failed\00", align 1
@H5E_CANTSET_g = external global i64, align 8
@.str.3 = private unnamed_addr constant [22 x i8] c"can't set API context\00", align 1
@H5E_ARGS_g = external global i64, align 8
@H5E_BADVALUE_g = external global i64, align 8
@.str.4 = private unnamed_addr constant [45 x i8] c"userblock size is non-zero and less than 512\00", align 1
@.str.5 = private unnamed_addr constant [50 x i8] c"userblock size is non-zero and not a power of two\00", align 1
@H5E_ID_g = external global i64, align 8
@H5E_BADID_g = external global i64, align 8
@.str.6 = private unnamed_addr constant [25 x i8] c"can't find object for ID\00", align 1
@.str.7 = private unnamed_addr constant [11 x i8] c"block_size\00", align 1
@H5E_PLIST_g = external global i64, align 8
@.str.8 = private unnamed_addr constant [21 x i8] c"can't set user block\00", align 1

; Function Attrs: nounwind uwtable
define i32 @H5Pset_userblock(i64 noundef %0, i64 noundef %1) #0 {
  %3 = alloca i64, align 8
  %4 = alloca i64, align 8
  %5 = alloca ptr, align 8
  %6 = alloca i32, align 4
  %7 = alloca i8, align 1
  %8 = alloca i8, align 1
  store i64 %0, ptr %3, align 8
  store i64 %1, ptr %4, align 8
  store i32 0, ptr %6, align 4
  store i8 0, ptr %7, align 1
  store i8 0, ptr %8, align 1
  %9 = load i8, ptr @H5_libinit_g, align 1
  %10 = trunc i8 %9 to i1
  br i1 %10, label %15, label %11

11:                                               ; preds = %2
  %12 = load i8, ptr @H5_libterm_g, align 1
  %13 = trunc i8 %12 to i1
  %14 = xor i1 %13, true
  br label %15

15:                                               ; preds = %11, %2
  %16 = phi i1 [ false, %2 ], [ %14, %11 ]
  %17 = xor i1 %16, true
  %18 = xor i1 %17, true
  %19 = zext i1 %18 to i32
  %20 = sext i32 %19 to i64
  %21 = icmp ne i64 %20, 0
  br i1 %21, label %22, label %46

22:                                               ; preds = %15
  %23 = call i32 @H5_init_library()
  %24 = icmp slt i32 %23, 0
  %25 = xor i1 %24, true
  %26 = xor i1 %25, true
  %27 = zext i1 %26 to i32
  %28 = sext i32 %27 to i64
  %29 = icmp ne i64 %28, 0
  br i1 %29, label %30, label %45

30:                                               ; preds = %22
  br label %31

31:                                               ; preds = %30
  br label %32

32:                                               ; preds = %31
  br label %33

33:                                               ; preds = %32
  %34 = load i64, ptr @H5E_FUNC_g, align 8
  %35 = load i64, ptr @H5E_CANTINIT_g, align 8
  %36 = call i32 (ptr, ptr, i32, i64, i64, ptr, ...) @H5E_printf_stack(ptr noundef @.str.1, ptr noundef @__func__.H5Pset_userblock, i32 noundef 319, i64 noundef %34, i64 noundef %35, ptr noundef @.str.2)
  br label %37

37:                                               ; preds = %33
  store i8 1, ptr %8, align 1
  %38 = load i8, ptr %8, align 1
  %39 = trunc i8 %38 to i1
  %40 = zext i1 %39 to i8
  store i8 %40, ptr %8, align 1
  br label %41

41:                                               ; preds = %37
  br label %42

42:                                               ; preds = %41
  store i32 -1, ptr %6, align 4
  br label %157

43:                                               ; No predecessors!
  br label %44

44:                                               ; preds = %43
  br label %45

45:                                               ; preds = %44, %22
  br label %46

46:                                               ; preds = %45, %15
  %47 = call i32 @H5CX_push()
  %48 = icmp slt i32 %47, 0
  %49 = xor i1 %48, true
  %50 = xor i1 %49, true
  %51 = zext i1 %50 to i32
  %52 = sext i32 %51 to i64
  %53 = icmp ne i64 %52, 0
  br i1 %53, label %54, label %69

54:                                               ; preds = %46
  br label %55

55:                                               ; preds = %54
  br label %56

56:                                               ; preds = %55
  br label %57

57:                                               ; preds = %56
  %58 = load i64, ptr @H5E_FUNC_g, align 8
  %59 = load i64, ptr @H5E_CANTSET_g, align 8
  %60 = call i32 (ptr, ptr, i32, i64, i64, ptr, ...) @H5E_printf_stack(ptr noundef @.str.1, ptr noundef @__func__.H5Pset_userblock, i32 noundef 319, i64 noundef %58, i64 noundef %59, ptr noundef @.str.3)
  br label %61

61:                                               ; preds = %57
  store i8 1, ptr %8, align 1
  %62 = load i8, ptr %8, align 1
  %63 = trunc i8 %62 to i1
  %64 = zext i1 %63 to i8
  store i8 %64, ptr %8, align 1
  br label %65

65:                                               ; preds = %61
  br label %66

66:                                               ; preds = %65
  store i32 -1, ptr %6, align 4
  br label %157

67:                                               ; No predecessors!
  br label %68

68:                                               ; preds = %67
  br label %70

69:                                               ; preds = %46
  store i8 1, ptr %7, align 1
  br label %70

70:                                               ; preds = %69, %68
  %71 = call i32 @H5E_clear_stack()
  %72 = load i64, ptr %4, align 8
  %73 = icmp ugt i64 %72, 0
  br i1 %73, label %74, label %117

74:                                               ; preds = %70
  %75 = load i64, ptr %4, align 8
  %76 = icmp ult i64 %75, 512
  br i1 %76, label %77, label %92

77:                                               ; preds = %74
  br label %78

78:                                               ; preds = %77
  br label %79

79:                                               ; preds = %78
  br label %80

80:                                               ; preds = %79
  %81 = load i64, ptr @H5E_ARGS_g, align 8
  %82 = load i64, ptr @H5E_BADVALUE_g, align 8
  %83 = call i32 (ptr, ptr, i32, i64, i64, ptr, ...) @H5E_printf_stack(ptr noundef @.str.1, ptr noundef @__func__.H5Pset_userblock, i32 noundef 325, i64 noundef %81, i64 noundef %82, ptr noundef @.str.4)
  br label %84

84:                                               ; preds = %80
  store i8 1, ptr %8, align 1
  %85 = load i8, ptr %8, align 1
  %86 = trunc i8 %85 to i1
  %87 = zext i1 %86 to i8
  store i8 %87, ptr %8, align 1
  br label %88

88:                                               ; preds = %84
  br label %89

89:                                               ; preds = %88
  store i32 -1, ptr %6, align 4
  br label %157

90:                                               ; No predecessors!
  br label %91

91:                                               ; preds = %90
  br label %92

92:                                               ; preds = %91, %74
  %93 = load i64, ptr %4, align 8
  %94 = load i64, ptr %4, align 8
  %95 = sub i64 %94, 1
  %96 = and i64 %93, %95
  %97 = icmp ne i64 %96, 0
  br i1 %97, label %101, label %98

98:                                               ; preds = %92
  %99 = load i64, ptr %4, align 8
  %100 = icmp ne i64 %99, 0
  br i1 %100, label %116, label %101

101:                                              ; preds = %98, %92
  br label %102

102:                                              ; preds = %101
  br label %103

103:                                              ; preds = %102
  br label %104

104:                                              ; preds = %103
  %105 = load i64, ptr @H5E_ARGS_g, align 8
  %106 = load i64, ptr @H5E_BADVALUE_g, align 8
  %107 = call i32 (ptr, ptr, i32, i64, i64, ptr, ...) @H5E_printf_stack(ptr noundef @.str.1, ptr noundef @__func__.H5Pset_userblock, i32 noundef 329, i64 noundef %105, i64 noundef %106, ptr noundef @.str.5)
  br label %108

108:                                              ; preds = %104
  store i8 1, ptr %8, align 1
  %109 = load i8, ptr %8, align 1
  %110 = trunc i8 %109 to i1
  %111 = zext i1 %110 to i8
  store i8 %111, ptr %8, align 1
  br label %112

112:                                              ; preds = %108
  br label %113

113:                                              ; preds = %112
  store i32 -1, ptr %6, align 4
  br label %157

114:                                              ; No predecessors!
  br label %115

115:                                              ; preds = %114
  br label %116

116:                                              ; preds = %115, %98
  br label %117

117:                                              ; preds = %116, %70
  %118 = load i64, ptr %3, align 8
  %119 = load i64, ptr @H5P_CLS_FILE_CREATE_ID_g, align 8
  %120 = call ptr @H5P_object_verify(i64 noundef %118, i64 noundef %119)
  store ptr %120, ptr %5, align 8
  %121 = icmp eq ptr null, %120
  br i1 %121, label %122, label %137

122:                                              ; preds = %117
  br label %123

123:                                              ; preds = %122
  br label %124

124:                                              ; preds = %123
  br label %125

125:                                              ; preds = %124
  %126 = load i64, ptr @H5E_ID_g, align 8
  %127 = load i64, ptr @H5E_BADID_g, align 8
  %128 = call i32 (ptr, ptr, i32, i64, i64, ptr, ...) @H5E_printf_stack(ptr noundef @.str.1, ptr noundef @__func__.H5Pset_userblock, i32 noundef 334, i64 noundef %126, i64 noundef %127, ptr noundef @.str.6)
  br label %129

129:                                              ; preds = %125
  store i8 1, ptr %8, align 1
  %130 = load i8, ptr %8, align 1
  %131 = trunc i8 %130 to i1
  %132 = zext i1 %131 to i8
  store i8 %132, ptr %8, align 1
  br label %133

133:                                              ; preds = %129
  br label %134

134:                                              ; preds = %133
  store i32 -1, ptr %6, align 4
  br label %157

135:                                              ; No predecessors!
  br label %136

136:                                              ; preds = %135
  br label %137

137:                                              ; preds = %136, %117
  %138 = load ptr, ptr %5, align 8
  %139 = call i32 @H5P_set(ptr noundef %138, ptr noundef @.str.7, ptr noundef %4)
  %140 = icmp slt i32 %139, 0
  br i1 %140, label %141, label %156

141:                                              ; preds = %137
  br label %142

142:                                              ; preds = %141
  br label %143

143:                                              ; preds = %142
  br label %144

144:                                              ; preds = %143
  %145 = load i64, ptr @H5E_PLIST_g, align 8
  %146 = load i64, ptr @H5E_CANTSET_g, align 8
  %147 = call i32 (ptr, ptr, i32, i64, i64, ptr, ...) @H5E_printf_stack(ptr noundef @.str.1, ptr noundef @__func__.H5Pset_userblock, i32 noundef 338, i64 noundef %145, i64 noundef %146, ptr noundef @.str.8)
  br label %148

148:                                              ; preds = %144
  store i8 1, ptr %8, align 1
  %149 = load i8, ptr %8, align 1
  %150 = trunc i8 %149 to i1
  %151 = zext i1 %150 to i8
  store i8 %151, ptr %8, align 1
  br label %152

152:                                              ; preds = %148
  br label %153

153:                                              ; preds = %152
  store i32 -1, ptr %6, align 4
  br label %157

154:                                              ; No predecessors!
  br label %155

155:                                              ; preds = %154
  br label %156

156:                                              ; preds = %155, %137
  br label %157

157:                                              ; preds = %156, %153, %134, %113, %89, %66, %42
  %158 = load i8, ptr %7, align 1
  %159 = trunc i8 %158 to i1
  %160 = xor i1 %159, true
  %161 = xor i1 %160, true
  %162 = zext i1 %161 to i32
  %163 = sext i32 %162 to i64
  %164 = icmp ne i64 %163, 0
  br i1 %164, label %165, label %167

165:                                              ; preds = %157
  %166 = call i32 @H5CX_pop(i1 noundef zeroext true)
  store i8 0, ptr %7, align 1
  br label %167

167:                                              ; preds = %165, %157
  %168 = load i8, ptr %8, align 1
  %169 = trunc i8 %168 to i1
  %170 = xor i1 %169, true
  %171 = xor i1 %170, true
  %172 = zext i1 %171 to i32
  %173 = sext i32 %172 to i64
  %174 = icmp ne i64 %173, 0
  br i1 %174, label %175, label %177

175:                                              ; preds = %167
  %176 = call i32 @H5E_dump_api_stack()
  br label %177

177:                                              ; preds = %175, %167
  %178 = load i32, ptr %6, align 4
  ret i32 %178
}