; Function Attrs: nounwind uwtable
define range(i32 -1, 1) i32 @H5Pset_userblock(i64 noundef %0, i64 noundef %1) local_unnamed_addr #0 {
  %3 = alloca i64, align 8
  store i64 %1, ptr %3, align 8
  %4 = load i8, ptr @H5_libinit_g, align 1
  %5 = trunc i8 %4 to i1
  %6 = load i8, ptr @H5_libterm_g, align 1
  %7 = trunc i8 %6 to i1
  %8 = select i1 %5, i1 true, i1 %7
  br i1 %8, label %16, label %9

9:                                                ; preds = %2
  %10 = tail call i32 @H5_init_library() #6
  %11 = icmp slt i32 %10, 0
  br i1 %11, label %12, label %16

12:                                               ; preds = %9
  %13 = load i64, ptr @H5E_FUNC_g, align 8
  %14 = load i64, ptr @H5E_CANTINIT_g, align 8
  %15 = tail call i32 (ptr, ptr, i32, i64, i64, ptr, ...) @H5E_printf_stack(ptr noundef nonnull @.str.1, ptr noundef nonnull @__func__.H5Pset_userblock, i32 noundef 319, i64 noundef %13, i64 noundef %14, ptr noundef nonnull @.str.2) #6
  br label %.thread23

16:                                               ; preds = %9, %2
  %17 = tail call i32 @H5CX_push() #6
  %18 = icmp slt i32 %17, 0
  br i1 %18, label %19, label %23

19:                                               ; preds = %16
  %20 = load i64, ptr @H5E_FUNC_g, align 8
  %21 = load i64, ptr @H5E_CANTSET_g, align 8
  %22 = tail call i32 (ptr, ptr, i32, i64, i64, ptr, ...) @H5E_printf_stack(ptr noundef nonnull @.str.1, ptr noundef nonnull @__func__.H5Pset_userblock, i32 noundef 319, i64 noundef %20, i64 noundef %21, ptr noundef nonnull @.str.3) #6
  br label %.thread23

23:                                               ; preds = %16
  %24 = tail call i32 @H5E_clear_stack() #6
  %.not = icmp eq i64 %1, 0
  br i1 %.not, label %38, label %25

25:                                               ; preds = %23
  %26 = icmp ult i64 %1, 512
  br i1 %26, label %27, label %31

27:                                               ; preds = %25
  %28 = load i64, ptr @H5E_ARGS_g, align 8
  %29 = load i64, ptr @H5E_BADVALUE_g, align 8
  %30 = tail call i32 (ptr, ptr, i32, i64, i64, ptr, ...) @H5E_printf_stack(ptr noundef nonnull @.str.1, ptr noundef nonnull @__func__.H5Pset_userblock, i32 noundef 325, i64 noundef %28, i64 noundef %29, ptr noundef nonnull @.str.4) #6
  br label %.thread29

31:                                               ; preds = %25
  %32 = tail call range(i64 1, 65) i64 @llvm.ctpop.i64(i64 %1)
  %33 = icmp samesign ult i64 %32, 2
  br i1 %33, label %38, label %34

34:                                               ; preds = %31
  %35 = load i64, ptr @H5E_ARGS_g, align 8
  %36 = load i64, ptr @H5E_BADVALUE_g, align 8
  %37 = tail call i32 (ptr, ptr, i32, i64, i64, ptr, ...) @H5E_printf_stack(ptr noundef nonnull @.str.1, ptr noundef nonnull @__func__.H5Pset_userblock, i32 noundef 329, i64 noundef %35, i64 noundef %36, ptr noundef nonnull @.str.5) #6
  br label %.thread29

38:                                               ; preds = %31, %23
  %39 = load i64, ptr @H5P_CLS_FILE_CREATE_ID_g, align 8
  %40 = tail call ptr @H5P_object_verify(i64 noundef %0, i64 noundef %39) #6
  %41 = icmp eq ptr %40, null
  br i1 %41, label %42, label %46

42:                                               ; preds = %38
  %43 = load i64, ptr @H5E_ID_g, align 8
  %44 = load i64, ptr @H5E_BADID_g, align 8
  %45 = tail call i32 (ptr, ptr, i32, i64, i64, ptr, ...) @H5E_printf_stack(ptr noundef nonnull @.str.1, ptr noundef nonnull @__func__.H5Pset_userblock, i32 noundef 334, i64 noundef %43, i64 noundef %44, ptr noundef nonnull @.str.6) #6
  br label %.thread29

46:                                               ; preds = %38
  %47 = call i32 @H5P_set(ptr noundef nonnull %40, ptr noundef nonnull @.str.7, ptr noundef nonnull %3) #6
  %48 = icmp slt i32 %47, 0
  br i1 %48, label %49, label %54

49:                                               ; preds = %46
  %50 = load i64, ptr @H5E_PLIST_g, align 8
  %51 = load i64, ptr @H5E_CANTSET_g, align 8
  %52 = call i32 (ptr, ptr, i32, i64, i64, ptr, ...) @H5E_printf_stack(ptr noundef nonnull @.str.1, ptr noundef nonnull @__func__.H5Pset_userblock, i32 noundef 338, i64 noundef %50, i64 noundef %51, ptr noundef nonnull @.str.8) #6
  br label %.thread29

.thread29:                                        ; preds = %34, %49, %42, %27
  %53 = call i32 @H5CX_pop(i1 noundef zeroext true) #6
  br label %.thread23

54:                                               ; preds = %46
  %55 = call i32 @H5CX_pop(i1 noundef zeroext true) #6
  br label %57

.thread23:                                        ; preds = %19, %12, %.thread29
  %56 = call i32 @H5E_dump_api_stack() #6
  br label %57

57:                                               ; preds = %54, %.thread23
  %.0121826 = phi i32 [ -1, %.thread23 ], [ 0, %54 ]
  ret i32 %.0121826
}